; Function Attrs: nounwind uwtable
define ptr @l_List_foldl___at_Lean_Meta_RecursorInfo_instToString___spec__8(ptr noundef %0, ptr noundef %1) local_unnamed_addr #0 {
  br label %3

3:                                                ; preds = %14, %2
  %.015 = phi ptr [ %1, %2 ], [ %18, %14 ]
  %.0 = phi ptr [ %0, %2 ], [ %25, %14 ]
  %4 = ptrtoint ptr %.015 to i64
  %5 = and i64 %4, 1
  %.not.i = icmp eq i64 %5, 0
  br i1 %.not.i, label %9, label %6

6:                                                ; preds = %3
  %7 = lshr i64 %4, 1
  %8 = trunc i64 %7 to i32
  br label %lean_obj_tag.exit

9:                                                ; preds = %3
  %10 = getelementptr i8, ptr %.015, i64 4
  %.val.i = load i32, ptr %10, align 4
  %11 = lshr i32 %.val.i, 24
  br label %lean_obj_tag.exit

lean_obj_tag.exit:                                ; preds = %6, %9
  %.0.i = phi i32 [ %8, %6 ], [ %11, %9 ]
  %12 = icmp eq i32 %.0.i, 0
  br i1 %12, label %13, label %14

13:                                               ; preds = %lean_obj_tag.exit
  ret ptr %.0

14:                                               ; preds = %lean_obj_tag.exit
  %15 = getelementptr inbounds nuw i8, ptr %.015, i64 8
  %16 = load ptr, ptr %15, align 8, !tbaa !4
  %17 = getelementptr inbounds nuw i8, ptr %.015, i64 16
  %18 = load ptr, ptr %17, align 8, !tbaa !4
  %19 = load ptr, ptr @l_List_foldl___at_Lean_Meta_RecursorInfo_instToString___spec__2___closed__1, align 8, !tbaa !4
  %20 = tail call ptr @lean_string_append(ptr noundef %.0, ptr noundef %19) #6
  %21 = ptrtoint ptr %16 to i64
  %22 = and i64 %21, 510
  %23 = icmp eq i64 %22, 0
  %l_List_foldl___at_Lean_Meta_RecursorInfo_instToString___spec__8___closed__1.val = load ptr, ptr @l_List_foldl___at_Lean_Meta_RecursorInfo_instToString___spec__8___closed__1, align 8
  %l_List_foldl___at_Lean_Meta_RecursorInfo_instToString___spec__8___closed__2.val = load ptr, ptr @l_List_foldl___at_Lean_Meta_RecursorInfo_instToString___spec__8___closed__2, align 8
  %24 = select i1 %23, ptr %l_List_foldl___at_Lean_Meta_RecursorInfo_instToString___spec__8___closed__1.val, ptr %l_List_foldl___at_Lean_Meta_RecursorInfo_instToString___spec__8___closed__2.val
  %25 = tail call ptr @lean_string_append(ptr noundef %20, ptr noundef %24) #6
  br label %3
}